target datalayout = "e-m:e-p270:32:32-p271:32:32-p272:64:64-i64:64-i128:128-f80:128-n8:16:32:64-S128"
target triple = "x86_64-pc-linux-gnu"

%class.LogTagSet = type { ptr, i64, [5 x i32], [4 x i8], %class.LogOutputList, %class.LogDecorators, ptr }
%class.LogOutputList = type <{ [6 x ptr], i32, [4 x i8] }>
%class.LogDecorators = type { i32 }
%class.JvmtiTagMap = type <{ ptr, %class.Monitor, ptr, i8, i8, [6 x i8] }>
%class.Monitor = type { %class.Mutex }
%class.Mutex = type { ptr, %class.PlatformMonitor, ptr }
%class.PlatformMonitor = type { %class.PlatformMutex, %union.pthread_cond_t }
%class.PlatformMutex = type { %union.pthread_mutex_t }
%union.pthread_mutex_t = type { %struct.__pthread_mutex_s }
%struct.__pthread_mutex_s = type { i32, i32, i32, i32, i32, i16, i16, %struct.__pthread_internal_list }
%struct.__pthread_internal_list = type { ptr, ptr }
%union.pthread_cond_t = type { %struct.__pthread_cond_s }
%struct.__pthread_cond_s = type { %union.__atomic_wide_counter, %union.__atomic_wide_counter, [2 x i32], [2 x i32], i32, i32, [2 x i32] }
%union.__atomic_wide_counter = type { i64 }
%class.JvmtiEnvBase = type <{ %struct._jvmtiEnv, i32, i32, ptr, i8, [7 x i8], ptr, %struct.jvmtiEventCallbacks, %struct.jvmtiExtEventCallbacks, ptr, %class.JvmtiEnvEventEnable, %struct.jvmtiCapabilities, %struct.jvmtiCapabilities, i8, [7 x i8], ptr, i32, [4 x i8] }>
%struct._jvmtiEnv = type { ptr }
%struct.jvmtiEventCallbacks = type { ptr, ptr, ptr, ptr, ptr, ptr, ptr, ptr, ptr, ptr, ptr, ptr, ptr, ptr, ptr, ptr, ptr, ptr, ptr, ptr, ptr, ptr, ptr, ptr, ptr, ptr, ptr, ptr, ptr, ptr, ptr, ptr, ptr, ptr, ptr, ptr, ptr, ptr, ptr }
%struct.jvmtiExtEventCallbacks = type { ptr, ptr, ptr }
%class.JvmtiEnvEventEnable = type { %class.JvmtiEventEnabled, %class.JvmtiEventEnabled, %class.JvmtiEventEnabled }
%class.JvmtiEventEnabled = type { i64 }
%struct.jvmtiCapabilities = type { i64, i64 }
%class.JvmtiTagMapTable = type { %class.ResizeableResourceHashtable }
%class.ResizeableResourceHashtable = type { %class.ResourceHashtableBase.base, i32 }
%class.ResourceHashtableBase.base = type <{ %class.ResizeableResourceHashtableStorage, i32 }>
%class.ResizeableResourceHashtableStorage = type { i32, ptr }
%class.ResourceHashtableBase = type <{ %class.ResizeableResourceHashtableStorage, i32, [4 x i8] }>

@.str.5 = private unnamed_addr constant [30 x i8] c"TagMap table needs cleaning%s\00", align 1
@.str.6 = private unnamed_addr constant [13 x i8] c" and posting\00", align 1
@.str.7 = private unnamed_addr constant [1 x i8] zeroinitializer, align 1
@_ZN16LogTagSetMappingILN6LogTag4typeE69ELS1_157ELS1_0ELS1_0ELS1_0ELS1_0EE7_tagsetE = linkonce_odr hidden global %class.LogTagSet zeroinitializer, comdat, align 8

; Function Attrs: mustprogress nounwind uwtable
define linkonce_odr hidden noundef zeroext i1 @_ZNK13LogOutputList8is_levelEN8LogLevel4typeE(ptr noundef nonnull align 8 dereferenceable(52) %0, i32 noundef %1) #1 comdat align 2 {
  %3 = alloca ptr, align 8
  %4 = alloca i32, align 4
  store ptr %0, ptr %3, align 8
  store i32 %1, ptr %4, align 4
  %5 = load ptr, ptr %3, align 8
  %6 = getelementptr inbounds %class.LogOutputList, ptr %5, i32 0, i32 0
  %7 = load i32, ptr %4, align 4
  %8 = zext i32 %7 to i64
  %9 = getelementptr inbounds [6 x ptr], ptr %6, i64 0, i64 %8
  %10 = load volatile ptr, ptr %9, align 8
  %11 = icmp ne ptr %10, null
  ret i1 %11
}

; Function Attrs: mustprogress nounwind uwtable
define linkonce_odr hidden noundef i64 @_ZN17JvmtiEventEnabled8get_bitsEv(ptr noundef nonnull align 8 dereferenceable(8) %0) #1 comdat align 2 {
  %2 = alloca ptr, align 8
  store ptr %0, ptr %2, align 8
  %3 = load ptr, ptr %2, align 8
  %4 = getelementptr inbounds %class.JvmtiEventEnabled, ptr %3, i32 0, i32 0
  %5 = load i64, ptr %4, align 8
  ret i64 %5
}

; Function Attrs: mustprogress nounwind uwtable
define linkonce_odr hidden noundef i64 @_ZN17JvmtiEventEnabled7bit_forE10jvmtiEvent(i32 noundef %0) #1 comdat align 2 {
  %2 = alloca i32, align 4
  store i32 %0, ptr %2, align 4
  %3 = load i32, ptr %2, align 4
  %4 = sub nsw i32 %3, 47
  %5 = zext i32 %4 to i64
  %6 = shl i64 1, %5
  ret i64 %6
}

; Function Attrs: mustprogress nounwind uwtable
define linkonce_odr hidden noundef zeroext i1 @_ZNK9LogTagSet8is_levelEN8LogLevel4typeE(ptr noundef nonnull align 8 dereferenceable(112) %0, i32 noundef %1) #1 comdat align 2 {
  %3 = alloca ptr, align 8
  %4 = alloca i32, align 4
  store ptr %0, ptr %3, align 8
  store i32 %1, ptr %4, align 4
  %5 = load ptr, ptr %3, align 8
  %6 = getelementptr inbounds %class.LogTagSet, ptr %5, i32 0, i32 4
  %7 = load i32, ptr %4, align 4
  %8 = call noundef zeroext i1 @_ZNK13LogOutputList8is_levelEN8LogLevel4typeE(ptr noundef nonnull align 8 dereferenceable(52) %6, i32 noundef %7)
  ret i1 %8
}

; Function Attrs: mustprogress nounwind uwtable
define linkonce_odr hidden noundef nonnull align 8 dereferenceable(112) ptr @_ZN16LogTagSetMappingILN6LogTag4typeE69ELS1_157ELS1_0ELS1_0ELS1_0ELS1_0EE6tagsetEv() #1 comdat align 2 {
  ret ptr @_ZN16LogTagSetMappingILN6LogTag4typeE69ELS1_157ELS1_0ELS1_0ELS1_0ELS1_0EE7_tagsetE
}

; Function Attrs: mustprogress nounwind uwtable
define linkonce_odr hidden noundef zeroext i1 @_ZN17JvmtiEventEnabled10is_enabledE10jvmtiEvent(ptr noundef nonnull align 8 dereferenceable(8) %0, i32 noundef %1) #1 comdat align 2 {
  %3 = alloca ptr, align 8
  %4 = alloca i32, align 4
  store ptr %0, ptr %3, align 8
  store i32 %1, ptr %4, align 4
  %5 = load ptr, ptr %3, align 8
  %6 = load i32, ptr %4, align 4
  %7 = call noundef i64 @_ZN17JvmtiEventEnabled7bit_forE10jvmtiEvent(i32 noundef %6)
  %8 = call noundef i64 @_ZN17JvmtiEventEnabled8get_bitsEv(ptr noundef nonnull align 8 dereferenceable(8) %5)
  %9 = and i64 %7, %8
  %10 = icmp ne i64 %9, 0
  ret i1 %10
}

; Function Attrs: mustprogress nounwind uwtable
define linkonce_odr hidden noundef i32 @_ZNK21ResourceHashtableBaseI34ResizeableResourceHashtableStorageI14JvmtiTagMapKeylLN6AnyObj15allocation_typeE2EL8MEMFLAGS23EES1_lLS3_2ELS4_23EXadL_ZNS1_8get_hashERKS1_EEXadL_ZNS1_6equalsES7_S7_EEE17number_of_entriesEv(ptr noundef nonnull align 8 dereferenceable(20) %0) #1 comdat align 2 {
  %2 = alloca ptr, align 8
  store ptr %0, ptr %2, align 8
  %3 = load ptr, ptr %2, align 8
  %4 = getelementptr inbounds %class.ResourceHashtableBase, ptr %3, i32 0, i32 1
  %5 = load i32, ptr %4, align 8
  ret i32 %5
}

; Function Attrs: mustprogress nounwind uwtable
define linkonce_odr hidden noundef zeroext i1 @_ZN7LogImplILN6LogTag4typeE69ELS1_157ELS1_0ELS1_0ELS1_0ELS1_0EE8is_levelEN8LogLevel4typeE(i32 noundef %0) #1 comdat align 2 {
  %2 = alloca i32, align 4
  store i32 %0, ptr %2, align 4
  %3 = call noundef nonnull align 8 dereferenceable(112) ptr @_ZN16LogTagSetMappingILN6LogTag4typeE69ELS1_157ELS1_0ELS1_0ELS1_0ELS1_0EE6tagsetEv()
  %4 = load i32, ptr %2, align 4
  %5 = call noundef zeroext i1 @_ZNK9LogTagSet8is_levelEN8LogLevel4typeE(ptr noundef nonnull align 8 dereferenceable(112) %3, i32 noundef %4)
  ret i1 %5
}

; Function Attrs: mustprogress nounwind uwtable
define linkonce_odr hidden noundef zeroext i1 @_ZN19JvmtiEnvEventEnable10is_enabledE10jvmtiEvent(ptr noundef nonnull align 8 dereferenceable(24) %0, i32 noundef %1) #1 comdat align 2 {
  %3 = alloca ptr, align 8
  %4 = alloca i32, align 4
  store ptr %0, ptr %3, align 8
  store i32 %1, ptr %4, align 4
  %5 = load ptr, ptr %3, align 8
  %6 = getelementptr inbounds %class.JvmtiEnvEventEnable, ptr %5, i32 0, i32 2
  %7 = load i32, ptr %4, align 4
  %8 = call noundef zeroext i1 @_ZN17JvmtiEventEnabled10is_enabledE10jvmtiEvent(ptr noundef nonnull align 8 dereferenceable(8) %6, i32 noundef %7)
  ret i1 %8
}

; Function Attrs: mustprogress nounwind uwtable
define linkonce_odr hidden noundef zeroext i1 @_ZNK16JvmtiTagMapTable8is_emptyEv(ptr noundef nonnull align 8 dereferenceable(24) %0) #1 comdat align 2 {
  %2 = alloca ptr, align 8
  store ptr %0, ptr %2, align 8
  %3 = load ptr, ptr %2, align 8
  %4 = getelementptr inbounds %class.JvmtiTagMapTable, ptr %3, i32 0, i32 0
  %5 = call noundef i32 @_ZNK21ResourceHashtableBaseI34ResizeableResourceHashtableStorageI14JvmtiTagMapKeylLN6AnyObj15allocation_typeE2EL8MEMFLAGS23EES1_lLS3_2ELS4_23EXadL_ZNS1_8get_hashERKS1_EEXadL_ZNS1_6equalsES7_S7_EEE17number_of_entriesEv(ptr noundef nonnull align 8 dereferenceable(20) %4)
  %6 = icmp eq i32 %5, 0
  ret i1 %6
}

; Function Attrs: mustprogress nounwind uwtable
define linkonce_odr hidden noundef ptr @_ZN11JvmtiTagMap7hashmapEv(ptr noundef nonnull align 8 dereferenceable(122) %0) #1 comdat align 2 {
  %2 = alloca ptr, align 8
  store ptr %0, ptr %2, align 8
  %3 = load ptr, ptr %2, align 8
  %4 = getelementptr inbounds %class.JvmtiTagMap, ptr %3, i32 0, i32 2
  %5 = load ptr, ptr %4, align 8
  ret ptr %5
}

; Function Attrs: mustprogress nounwind uwtable
define hidden void @_ZN11JvmtiTagMap26remove_dead_entries_lockedEP13GrowableArrayIlE(ptr noundef nonnull align 8 dereferenceable(122) %0, ptr noundef %1) #1 align 2 {
  %3 = alloca ptr, align 8
  %4 = alloca ptr, align 8
  store ptr %0, ptr %3, align 8
  store ptr %1, ptr %4, align 8
  %5 = load ptr, ptr %3, align 8
  %6 = getelementptr inbounds %class.JvmtiTagMap, ptr %5, i32 0, i32 3
  %7 = load i8, ptr %6, align 8
  %8 = trunc i8 %7 to i1
  br i1 %8, label %9, label %24

9:                                                ; preds = %2
  %10 = call noundef ptr @_ZNK11JvmtiTagMap3envEv(ptr noundef nonnull align 8 dereferenceable(122) %5)
  %11 = call noundef zeroext i1 @_ZN12JvmtiEnvBase10is_enabledE10jvmtiEvent(ptr noundef nonnull align 8 dereferenceable(460) %10, i32 noundef 83)
  br i1 %11, label %13, label %12

12:                                               ; preds = %9
  store ptr null, ptr %4, align 8
  br label %13

13:                                               ; preds = %12, %9
  %14 = call noundef zeroext i1 @_ZN7LogImplILN6LogTag4typeE69ELS1_157ELS1_0ELS1_0ELS1_0ELS1_0EE8is_levelEN8LogLevel4typeE(i32 noundef 3)
  br i1 %14, label %16, label %15

15:                                               ; preds = %13
  br label %20

16:                                               ; preds = %13
  %17 = load ptr, ptr %4, align 8
  %18 = icmp ne ptr %17, null
  %19 = select i1 %18, ptr @.str.6, ptr @.str.7
  call void (ptr, ...) @_ZN7LogImplILN6LogTag4typeE69ELS1_157ELS1_0ELS1_0ELS1_0ELS1_0EE5writeILN8LogLevel4typeE3EEEvPKcz(ptr noundef @.str.5, ptr noundef %19)
  br label %20

20:                                               ; preds = %16, %15
  %21 = call noundef ptr @_ZN11JvmtiTagMap7hashmapEv(ptr noundef nonnull align 8 dereferenceable(122) %5)
  %22 = load ptr, ptr %4, align 8
  call void @_ZN16JvmtiTagMapTable19remove_dead_entriesEP13GrowableArrayIlE(ptr noundef nonnull align 8 dereferenceable(24) %21, ptr noundef %22)
  %23 = getelementptr inbounds %class.JvmtiTagMap, ptr %5, i32 0, i32 3
  store i8 0, ptr %23, align 8
  br label %24

24:                                               ; preds = %20, %2
  ret void
}

; Function Attrs: mustprogress nounwind uwtable
define linkonce_odr hidden noundef zeroext i1 @_ZN12JvmtiEnvBase10is_enabledE10jvmtiEvent(ptr noundef nonnull align 8 dereferenceable(460) %0, i32 noundef %1) #1 comdat align 2 {
  %3 = alloca ptr, align 8
  %4 = alloca i32, align 4
  store ptr %0, ptr %3, align 8
  store i32 %1, ptr %4, align 4
  %5 = load ptr, ptr %3, align 8
  %6 = getelementptr inbounds %class.JvmtiEnvBase, ptr %5, i32 0, i32 10
  %7 = load i32, ptr %4, align 4
  %8 = call noundef zeroext i1 @_ZN19JvmtiEnvEventEnable10is_enabledE10jvmtiEvent(ptr noundef nonnull align 8 dereferenceable(24) %6, i32 noundef %7)
  ret i1 %8
}

; Function Attrs: mustprogress nounwind uwtable
define linkonce_odr hidden noundef ptr @_ZNK11JvmtiTagMap3envEv(ptr noundef nonnull align 8 dereferenceable(122) %0) #1 comdat align 2 {
  %2 = alloca ptr, align 8
  store ptr %0, ptr %2, align 8
  %3 = load ptr, ptr %2, align 8
  %4 = getelementptr inbounds %class.JvmtiTagMap, ptr %3, i32 0, i32 0
  %5 = load ptr, ptr %4, align 8
  ret ptr %5
}

; Function Attrs: mustprogress nounwind uwtable
define hidden noundef zeroext i1 @_ZN11JvmtiTagMap8is_emptyEv(ptr noundef nonnull align 8 dereferenceable(122) %0) #1 align 2 {
  %2 = alloca ptr, align 8
  store ptr %0, ptr %2, align 8
  %3 = load ptr, ptr %2, align 8
  %4 = call noundef ptr @_ZN11JvmtiTagMap7hashmapEv(ptr noundef nonnull align 8 dereferenceable(122) %3)
  %5 = call noundef zeroext i1 @_ZNK16JvmtiTagMapTable8is_emptyEv(ptr noundef nonnull align 8 dereferenceable(24) %4)
  ret i1 %5
}

; Function Attrs: mustprogress nounwind uwtable
define hidden void @_ZN11JvmtiTagMap13check_hashmapEP13GrowableArrayIlE(ptr noundef nonnull align 8 dereferenceable(122) %0, ptr noundef %1) #1 align 2 {
  %3 = alloca ptr, align 8
  %4 = alloca ptr, align 8
  store ptr %0, ptr %3, align 8
  store ptr %1, ptr %4, align 8
  %5 = load ptr, ptr %3, align 8
  %6 = call noundef zeroext i1 @_ZN11JvmtiTagMap8is_emptyEv(ptr noundef nonnull align 8 dereferenceable(122) %5)
  br i1 %6, label %7, label %8

7:                                                ; preds = %2
  br label %20

8:                                                ; preds = %2
  %9 = getelementptr inbounds %class.JvmtiTagMap, ptr %5, i32 0, i32 3
  %10 = load i8, ptr %9, align 8
  %11 = trunc i8 %10 to i1
  br i1 %11, label %12, label %20

12:                                               ; preds = %8
  %13 = load ptr, ptr %4, align 8
  %14 = icmp ne ptr %13, null
  br i1 %14, label %15, label %20

15:                                               ; preds = %12
  %16 = call noundef ptr @_ZNK11JvmtiTagMap3envEv(ptr noundef nonnull align 8 dereferenceable(122) %5)
  %17 = call noundef zeroext i1 @_ZN12JvmtiEnvBase10is_enabledE10jvmtiEvent(ptr noundef nonnull align 8 dereferenceable(460) %16, i32 noundef 83)
  br i1 %17, label %18, label %20

18:                                               ; preds = %15
  %19 = load ptr, ptr %4, align 8
  call void @_ZN11JvmtiTagMap26remove_dead_entries_lockedEP13GrowableArrayIlE(ptr noundef nonnull align 8 dereferenceable(122) %5, ptr noundef %19)
  br label %20

20:                                               ; preds = %18, %15, %12, %8, %7
  ret void
}