; Function Attrs: mustprogress nounwind uwtable
define hidden void @_ZN11JvmtiTagMap13check_hashmapEP13GrowableArrayIlE(ptr nocapture noundef nonnull align 8 dereferenceable(122) %0, ptr noundef %1) local_unnamed_addr #0 align 2 {
  %3 = getelementptr inbounds i8, ptr %0, i64 112
  %4 = load ptr, ptr %3, align 8
  %5 = getelementptr inbounds i8, ptr %4, i64 16
  %6 = load i32, ptr %5, align 8
  %7 = icmp eq i32 %6, 0
  br i1 %7, label %22, label %8

8:                                                ; preds = %2
  %9 = getelementptr inbounds i8, ptr %0, i64 120
  %10 = load i8, ptr %9, align 8
  %11 = trunc i8 %10 to i1
  %12 = icmp ne ptr %1, null
  %or.cond = and i1 %12, %11
  br i1 %or.cond, label %13, label %22

13:                                               ; preds = %8
  %14 = load ptr, ptr %0, align 8
  %15 = getelementptr inbounds i8, ptr %14, i64 400
  %16 = load i64, ptr %15, align 8
  %17 = and i64 %16, 68719476736
  %.not = icmp eq i64 %17, 0
  br i1 %.not, label %22, label %18

18:                                               ; preds = %13
  %19 = load volatile ptr, ptr getelementptr inbounds (i8, ptr @_ZN16LogTagSetMappingILN6LogTag4typeE69ELS1_157ELS1_0ELS1_0ELS1_0ELS1_0EE7_tagsetE, i64 64), align 8
  %.not4.i = icmp eq ptr %19, null
  br i1 %.not4.i, label %_ZN11JvmtiTagMap26remove_dead_entries_lockedEP13GrowableArrayIlE.exit, label %20

20:                                               ; preds = %18
  tail call void (ptr, ...) @_ZN7LogImplILN6LogTag4typeE69ELS1_157ELS1_0ELS1_0ELS1_0ELS1_0EE5writeILN8LogLevel4typeE3EEEvPKcz(ptr noundef nonnull @.str.5, ptr noundef nonnull @.str.6)
  %.pre = load ptr, ptr %3, align 8
  br label %_ZN11JvmtiTagMap26remove_dead_entries_lockedEP13GrowableArrayIlE.exit

_ZN11JvmtiTagMap26remove_dead_entries_lockedEP13GrowableArrayIlE.exit: ; preds = %18, %20
  %21 = phi ptr [ %4, %18 ], [ %.pre, %20 ]
  tail call void @_ZN16JvmtiTagMapTable19remove_dead_entriesEP13GrowableArrayIlE(ptr noundef nonnull align 8 dereferenceable(24) %21, ptr noundef nonnull %1) #14
  store i8 0, ptr %9, align 8
  br label %22

22:                                               ; preds = %2, %_ZN11JvmtiTagMap26remove_dead_entries_lockedEP13GrowableArrayIlE.exit, %13, %8
  ret void
}